target datalayout = "e-m:e-p270:32:32-p271:32:32-p272:64:64-i64:64-i128:128-f80:128-n8:16:32:64-S128"
target triple = "x86_64-pc-linux-gnu"

%struct.expert_field = type { i32, i32 }
%struct.spice_conversation_t = type { i32, i32, i32, i32, i32, i32, i32, i16, i8, i8, i8, i8 }

@hf_link_client = internal global i32 0, align 4
@hf_spice_magic = internal global i32 0, align 4
@hf_major_version = internal global i32 0, align 4
@hf_minor_version = internal global i32 0, align 4
@hf_message_size = internal global i32 0, align 4
@hf_conn_id = internal global i32 0, align 4
@hf_channel_type = internal global i32 0, align 4
@hf_channel_id = internal global i32 0, align 4
@hf_num_common_caps = internal global i32 0, align 4
@hf_num_channel_caps = internal global i32 0, align 4
@hf_caps_offset = internal global i32 0, align 4
@ett_link_client = internal global i32 0, align 4
@ett_link_caps = internal global i32 0, align 4
@ei_spice_common_cap_unknown = internal global %struct.expert_field zeroinitializer, align 4
@.str.749 = private unnamed_addr constant [38 x i8] c"Client Common Capabilities (%d bytes)\00", align 1
@.str.750 = private unnamed_addr constant [48 x i8] c"Client Channel-specific Capabilities (%d bytes)\00", align 1
@dissect_spice_common_capabilities.caps = internal constant [5 x ptr] [ptr @hf_common_cap_auth_select, ptr @hf_common_cap_auth_spice, ptr @hf_common_cap_auth_sasl, ptr @hf_common_cap_mini_header, ptr null], align 16

; Function Attrs: null_pointer_is_valid sspstrong uwtable
define internal void @dissect_spice_common_capabilities(ptr noundef %0, ptr noundef %1, ptr noundef %2, i32 noundef %3, i32 noundef %4, ptr noundef %5, i1 noundef zeroext %6) #0 {
  %8 = alloca ptr, align 8
  %9 = alloca ptr, align 8
  %10 = alloca ptr, align 8
  %11 = alloca i32, align 4
  %12 = alloca i32, align 4
  %13 = alloca ptr, align 8
  %14 = alloca i8, align 1
  %15 = alloca i32, align 4
  %16 = alloca i32, align 4
  store ptr %0, ptr %8, align 8
  store ptr %1, ptr %9, align 8
  store ptr %2, ptr %10, align 8
  store i32 %3, ptr %11, align 4
  store i32 %4, ptr %12, align 4
  store ptr %5, ptr %13, align 8
  %17 = zext i1 %6 to i8
  store i8 %17, ptr %14, align 1
  call void @llvm.lifetime.start.p0(i64 4, ptr %15) #6
  call void @llvm.lifetime.start.p0(i64 4, ptr %16) #6
  store i32 0, ptr %15, align 4
  br label %18

18:                                               ; preds = %67, %7
  %19 = load i32, ptr %15, align 4
  %20 = load i32, ptr %12, align 4
  %21 = icmp ult i32 %19, %20
  br i1 %21, label %22, label %70

22:                                               ; preds = %18
  %23 = load ptr, ptr %8, align 8
  %24 = load i32, ptr %11, align 4
  %25 = call i32 @tvb_get_letohl(ptr noundef %23, i32 noundef %24)
  store i32 %25, ptr %16, align 4
  %26 = load i32, ptr %15, align 4
  switch i32 %26, label %58 [
    i32 0, label %27
  ]

27:                                               ; preds = %22
  %28 = load i8, ptr %14, align 1, !range !6, !noundef !7
  %29 = trunc i8 %28 to i1
  br i1 %29, label %30, label %34

30:                                               ; preds = %27
  %31 = load i32, ptr %16, align 4
  %32 = load ptr, ptr %13, align 8
  %33 = getelementptr inbounds nuw %struct.spice_conversation_t, ptr %32, i32 0, i32 3
  store i32 %31, ptr %33, align 4
  br label %38

34:                                               ; preds = %27
  %35 = load i32, ptr %16, align 4
  %36 = load ptr, ptr %13, align 8
  %37 = getelementptr inbounds nuw %struct.spice_conversation_t, ptr %36, i32 0, i32 4
  store i32 %35, ptr %37, align 4
  br label %38

38:                                               ; preds = %34, %30
  %39 = load ptr, ptr %10, align 8
  %40 = load ptr, ptr %8, align 8
  %41 = load i32, ptr %11, align 4
  call void @proto_tree_add_bitmask_list(ptr noundef %39, ptr noundef %40, i32 noundef %41, i32 noundef 4, ptr noundef @dissect_spice_common_capabilities.caps, i32 noundef -2147483648)
  %42 = load i32, ptr %16, align 4
  %43 = and i32 %42, 8
  %44 = icmp ne i32 %43, 0
  br i1 %44, label %45, label %55

45:                                               ; preds = %38
  %46 = load i8, ptr %14, align 1, !range !6, !noundef !7
  %47 = trunc i8 %46 to i1
  br i1 %47, label %48, label %51

48:                                               ; preds = %45
  %49 = load ptr, ptr %13, align 8
  %50 = getelementptr inbounds nuw %struct.spice_conversation_t, ptr %49, i32 0, i32 10
  store i8 1, ptr %50, align 4
  br label %54

51:                                               ; preds = %45
  %52 = load ptr, ptr %13, align 8
  %53 = getelementptr inbounds nuw %struct.spice_conversation_t, ptr %52, i32 0, i32 11
  store i8 1, ptr %53, align 1
  br label %54

54:                                               ; preds = %51, %48
  br label %55

55:                                               ; preds = %54, %38
  %56 = load i32, ptr %11, align 4
  %57 = add i32 %56, 4
  store i32 %57, ptr %11, align 4
  br label %66

58:                                               ; preds = %22
  %59 = load ptr, ptr %10, align 8
  %60 = load ptr, ptr %9, align 8
  %61 = load ptr, ptr %8, align 8
  %62 = load i32, ptr %11, align 4
  %63 = call ptr @proto_tree_add_expert(ptr noundef %59, ptr noundef %60, ptr noundef @ei_spice_common_cap_unknown, ptr noundef %61, i32 noundef %62, i32 noundef 4)
  %64 = load i32, ptr %11, align 4
  %65 = add i32 %64, 4
  store i32 %65, ptr %11, align 4
  br label %66

66:                                               ; preds = %58, %55
  br label %67

67:                                               ; preds = %66
  %68 = load i32, ptr %15, align 4
  %69 = add i32 %68, 1
  store i32 %69, ptr %15, align 4
  br label %18, !llvm.loop !14

70:                                               ; preds = %18
  call void @llvm.lifetime.end.p0(i64 4, ptr %16) #6
  call void @llvm.lifetime.end.p0(i64 4, ptr %15) #6
  ret void
}

; Function Attrs: null_pointer_is_valid sspstrong uwtable
define internal void @dissect_spice_link_common_header(ptr noundef %0, ptr noundef %1) #0 {
  %3 = alloca ptr, align 8
  %4 = alloca ptr, align 8
  store ptr %0, ptr %3, align 8
  store ptr %1, ptr %4, align 8
  %5 = load ptr, ptr %4, align 8
  %6 = icmp ne ptr %5, null
  br i1 %6, label %7, label %24

7:                                                ; preds = %2
  %8 = load ptr, ptr %4, align 8
  %9 = load i32, ptr @hf_spice_magic, align 4
  %10 = load ptr, ptr %3, align 8
  %11 = call ptr @proto_tree_add_item(ptr noundef %8, i32 noundef %9, ptr noundef %10, i32 noundef 0, i32 noundef 4, i32 noundef 0)
  %12 = load ptr, ptr %4, align 8
  %13 = load i32, ptr @hf_major_version, align 4
  %14 = load ptr, ptr %3, align 8
  %15 = call ptr @proto_tree_add_item(ptr noundef %12, i32 noundef %13, ptr noundef %14, i32 noundef 4, i32 noundef 4, i32 noundef -2147483648)
  %16 = load ptr, ptr %4, align 8
  %17 = load i32, ptr @hf_minor_version, align 4
  %18 = load ptr, ptr %3, align 8
  %19 = call ptr @proto_tree_add_item(ptr noundef %16, i32 noundef %17, ptr noundef %18, i32 noundef 8, i32 noundef 4, i32 noundef -2147483648)
  %20 = load ptr, ptr %4, align 8
  %21 = load i32, ptr @hf_message_size, align 4
  %22 = load ptr, ptr %3, align 8
  %23 = call ptr @proto_tree_add_item(ptr noundef %20, i32 noundef %21, ptr noundef %22, i32 noundef 12, i32 noundef 4, i32 noundef -2147483648)
  br label %24

24:                                               ; preds = %7, %2
  ret void
}

; Function Attrs: null_pointer_is_valid sspstrong uwtable
define internal void @dissect_spice_link_client_pdu(ptr noundef %0, ptr noundef %1, ptr noundef %2, ptr noundef %3) #0 {
  %5 = alloca ptr, align 8
  %6 = alloca ptr, align 8
  %7 = alloca ptr, align 8
  %8 = alloca ptr, align 8
  %9 = alloca i32, align 4
  %10 = alloca i32, align 4
  %11 = alloca i32, align 4
  %12 = alloca ptr, align 8
  %13 = alloca ptr, align 8
  %14 = alloca ptr, align 8
  store ptr %0, ptr %5, align 8
  store ptr %1, ptr %6, align 8
  store ptr %2, ptr %7, align 8
  store ptr %3, ptr %8, align 8
  call void @llvm.lifetime.start.p0(i64 4, ptr %9) #6
  call void @llvm.lifetime.start.p0(i64 4, ptr %10) #6
  call void @llvm.lifetime.start.p0(i64 4, ptr %11) #6
  call void @llvm.lifetime.start.p0(i64 8, ptr %12) #6
  store ptr null, ptr %12, align 8
  call void @llvm.lifetime.start.p0(i64 8, ptr %13) #6
  store ptr null, ptr %13, align 8
  call void @llvm.lifetime.start.p0(i64 8, ptr %14) #6
  store ptr null, ptr %14, align 8
  %15 = load ptr, ptr %7, align 8
  %16 = icmp ne ptr %15, null
  br i1 %16, label %17, label %27

17:                                               ; preds = %4
  %18 = load ptr, ptr %7, align 8
  %19 = load i32, ptr @hf_link_client, align 4
  %20 = load ptr, ptr %5, align 8
  %21 = call ptr @proto_tree_add_item(ptr noundef %18, i32 noundef %19, ptr noundef %20, i32 noundef 0, i32 noundef 16, i32 noundef 0)
  store ptr %21, ptr %12, align 8
  %22 = load ptr, ptr %12, align 8
  %23 = load i32, ptr @ett_link_client, align 4
  %24 = call ptr @proto_item_add_subtree(ptr noundef %22, i32 noundef %23)
  store ptr %24, ptr %13, align 8
  %25 = load ptr, ptr %5, align 8
  %26 = load ptr, ptr %13, align 8
  call void @dissect_spice_link_common_header(ptr noundef %25, ptr noundef %26)
  br label %27

27:                                               ; preds = %17, %4
  store i32 16, ptr %9, align 4
  %28 = load ptr, ptr %8, align 8
  %29 = getelementptr inbounds nuw %struct.spice_conversation_t, ptr %28, i32 0, i32 8
  %30 = load i8, ptr %29, align 2
  %31 = zext i8 %30 to i32
  %32 = icmp eq i32 %31, 0
  br i1 %32, label %33, label %40

33:                                               ; preds = %27
  %34 = load ptr, ptr %5, align 8
  %35 = load i32, ptr %9, align 4
  %36 = add i32 %35, 4
  %37 = call zeroext i8 @tvb_get_uint8(ptr noundef %34, i32 noundef %36)
  %38 = load ptr, ptr %8, align 8
  %39 = getelementptr inbounds nuw %struct.spice_conversation_t, ptr %38, i32 0, i32 8
  store i8 %37, ptr %39, align 2
  br label %40

40:                                               ; preds = %33, %27
  %41 = load ptr, ptr %5, align 8
  %42 = load i32, ptr %9, align 4
  %43 = add i32 %42, 6
  %44 = call i32 @tvb_get_letohl(ptr noundef %41, i32 noundef %43)
  store i32 %44, ptr %10, align 4
  %45 = load ptr, ptr %5, align 8
  %46 = load i32, ptr %9, align 4
  %47 = add i32 %46, 10
  %48 = call i32 @tvb_get_letohl(ptr noundef %45, i32 noundef %47)
  store i32 %48, ptr %11, align 4
  %49 = load ptr, ptr %7, align 8
  %50 = load i32, ptr @hf_conn_id, align 4
  %51 = load ptr, ptr %5, align 8
  %52 = load i32, ptr %9, align 4
  %53 = call ptr @proto_tree_add_item(ptr noundef %49, i32 noundef %50, ptr noundef %51, i32 noundef %52, i32 noundef 4, i32 noundef -2147483648)
  %54 = load i32, ptr %9, align 4
  %55 = add i32 %54, 4
  store i32 %55, ptr %9, align 4
  %56 = load ptr, ptr %7, align 8
  %57 = load i32, ptr @hf_channel_type, align 4
  %58 = load ptr, ptr %5, align 8
  %59 = load i32, ptr %9, align 4
  %60 = call ptr @proto_tree_add_item(ptr noundef %56, i32 noundef %57, ptr noundef %58, i32 noundef %59, i32 noundef 1, i32 noundef 0)
  %61 = load i32, ptr %9, align 4
  %62 = add i32 %61, 1
  store i32 %62, ptr %9, align 4
  %63 = load ptr, ptr %7, align 8
  %64 = load i32, ptr @hf_channel_id, align 4
  %65 = load ptr, ptr %5, align 8
  %66 = load i32, ptr %9, align 4
  %67 = call ptr @proto_tree_add_item(ptr noundef %63, i32 noundef %64, ptr noundef %65, i32 noundef %66, i32 noundef 1, i32 noundef 0)
  %68 = load i32, ptr %9, align 4
  %69 = add i32 %68, 1
  store i32 %69, ptr %9, align 4
  %70 = load ptr, ptr %7, align 8
  %71 = load i32, ptr @hf_num_common_caps, align 4
  %72 = load ptr, ptr %5, align 8
  %73 = load i32, ptr %9, align 4
  %74 = call ptr @proto_tree_add_item(ptr noundef %70, i32 noundef %71, ptr noundef %72, i32 noundef %73, i32 noundef 4, i32 noundef -2147483648)
  %75 = load i32, ptr %9, align 4
  %76 = add i32 %75, 4
  store i32 %76, ptr %9, align 4
  %77 = load ptr, ptr %7, align 8
  %78 = load i32, ptr @hf_num_channel_caps, align 4
  %79 = load ptr, ptr %5, align 8
  %80 = load i32, ptr %9, align 4
  %81 = call ptr @proto_tree_add_item(ptr noundef %77, i32 noundef %78, ptr noundef %79, i32 noundef %80, i32 noundef 4, i32 noundef -2147483648)
  %82 = load i32, ptr %9, align 4
  %83 = add i32 %82, 4
  store i32 %83, ptr %9, align 4
  %84 = load ptr, ptr %7, align 8
  %85 = load i32, ptr @hf_caps_offset, align 4
  %86 = load ptr, ptr %5, align 8
  %87 = load i32, ptr %9, align 4
  %88 = call ptr @proto_tree_add_item(ptr noundef %84, i32 noundef %85, ptr noundef %86, i32 noundef %87, i32 noundef 4, i32 noundef -2147483648)
  %89 = load i32, ptr %9, align 4
  %90 = add i32 %89, 4
  store i32 %90, ptr %9, align 4
  %91 = load i32, ptr %10, align 4
  %92 = icmp ugt i32 %91, 0
  br i1 %92, label %93, label %113

93:                                               ; preds = %40
  %94 = load ptr, ptr %7, align 8
  %95 = load ptr, ptr %5, align 8
  %96 = load i32, ptr %9, align 4
  %97 = load i32, ptr %10, align 4
  %98 = mul i32 %97, 4
  %99 = load i32, ptr @ett_link_caps, align 4
  %100 = load i32, ptr %10, align 4
  %101 = mul i32 %100, 4
  %102 = call ptr (ptr, ptr, i32, i32, i32, ptr, ptr, ...) @proto_tree_add_subtree_format(ptr noundef %94, ptr noundef %95, i32 noundef %96, i32 noundef %98, i32 noundef %99, ptr noundef null, ptr noundef @.str.749, i32 noundef %101)
  store ptr %102, ptr %14, align 8
  %103 = load ptr, ptr %5, align 8
  %104 = load ptr, ptr %6, align 8
  %105 = load ptr, ptr %14, align 8
  %106 = load i32, ptr %9, align 4
  %107 = load i32, ptr %10, align 4
  %108 = load ptr, ptr %8, align 8
  call void @dissect_spice_common_capabilities(ptr noundef %103, ptr noundef %104, ptr noundef %105, i32 noundef %106, i32 noundef %107, ptr noundef %108, i1 noundef zeroext true)
  %109 = load i32, ptr %10, align 4
  %110 = mul i32 %109, 4
  %111 = load i32, ptr %9, align 4
  %112 = add i32 %111, %110
  store i32 %112, ptr %9, align 4
  br label %113

113:                                              ; preds = %93, %40
  %114 = load i32, ptr %11, align 4
  %115 = icmp ugt i32 %114, 0
  br i1 %115, label %116, label %132

116:                                              ; preds = %113
  %117 = load ptr, ptr %7, align 8
  %118 = load ptr, ptr %5, align 8
  %119 = load i32, ptr %9, align 4
  %120 = load i32, ptr %11, align 4
  %121 = mul i32 %120, 4
  %122 = load i32, ptr @ett_link_caps, align 4
  %123 = load i32, ptr %11, align 4
  %124 = mul i32 %123, 4
  %125 = call ptr (ptr, ptr, i32, i32, i32, ptr, ptr, ...) @proto_tree_add_subtree_format(ptr noundef %117, ptr noundef %118, i32 noundef %119, i32 noundef %121, i32 noundef %122, ptr noundef null, ptr noundef @.str.750, i32 noundef %124)
  store ptr %125, ptr %14, align 8
  %126 = load ptr, ptr %5, align 8
  %127 = load ptr, ptr %6, align 8
  %128 = load ptr, ptr %14, align 8
  %129 = load i32, ptr %9, align 4
  %130 = load i32, ptr %11, align 4
  %131 = load ptr, ptr %8, align 8
  call void @dissect_spice_link_capabilities(ptr noundef %126, ptr noundef %127, ptr noundef %128, i32 noundef %129, i32 noundef %130, ptr noundef %131)
  br label %132

132:                                              ; preds = %116, %113
  call void @llvm.lifetime.end.p0(i64 8, ptr %14) #6
  call void @llvm.lifetime.end.p0(i64 8, ptr %13) #6
  call void @llvm.lifetime.end.p0(i64 8, ptr %12) #6
  call void @llvm.lifetime.end.p0(i64 4, ptr %11) #6
  call void @llvm.lifetime.end.p0(i64 4, ptr %10) #6
  call void @llvm.lifetime.end.p0(i64 4, ptr %9) #6
  ret void
}