; Function Attrs: null_pointer_is_valid sspstrong uwtable
define internal fastcc void @dissect_spice_link_client_pdu(ptr noundef %0, ptr noundef %1, ptr noundef %2, ptr noundef captures(none) %3) unnamed_addr #0 {
  %.not = icmp eq ptr %2, null
  br i1 %.not, label %dissect_spice_link_common_header.exit, label %5

5:                                                ; preds = %4
  %6 = load i32, ptr @hf_link_client, align 4
  %7 = tail call ptr @proto_tree_add_item(ptr noundef nonnull %2, i32 noundef %6, ptr noundef %0, i32 noundef 0, i32 noundef 16, i32 noundef 0)
  %8 = load i32, ptr @ett_link_client, align 4
  %9 = tail call ptr @proto_item_add_subtree(ptr noundef %7, i32 noundef %8)
  %.not.i = icmp eq ptr %9, null
  br i1 %.not.i, label %dissect_spice_link_common_header.exit, label %10

10:                                               ; preds = %5
  %11 = load i32, ptr @hf_spice_magic, align 4
  %12 = tail call ptr @proto_tree_add_item(ptr noundef nonnull %9, i32 noundef %11, ptr noundef %0, i32 noundef 0, i32 noundef 4, i32 noundef 0)
  %13 = load i32, ptr @hf_major_version, align 4
  %14 = tail call ptr @proto_tree_add_item(ptr noundef nonnull %9, i32 noundef %13, ptr noundef %0, i32 noundef 4, i32 noundef 4, i32 noundef -2147483648)
  %15 = load i32, ptr @hf_minor_version, align 4
  %16 = tail call ptr @proto_tree_add_item(ptr noundef nonnull %9, i32 noundef %15, ptr noundef %0, i32 noundef 8, i32 noundef 4, i32 noundef -2147483648)
  %17 = load i32, ptr @hf_message_size, align 4
  %18 = tail call ptr @proto_tree_add_item(ptr noundef nonnull %9, i32 noundef %17, ptr noundef %0, i32 noundef 12, i32 noundef 4, i32 noundef -2147483648)
  br label %dissect_spice_link_common_header.exit

dissect_spice_link_common_header.exit:            ; preds = %10, %5, %4
  %19 = getelementptr inbounds nuw i8, ptr %3, i64 30
  %20 = load i8, ptr %19, align 2
  %21 = icmp eq i8 %20, 0
  br i1 %21, label %22, label %24

22:                                               ; preds = %dissect_spice_link_common_header.exit
  %23 = tail call zeroext i8 @tvb_get_uint8(ptr noundef %0, i32 noundef 20)
  store i8 %23, ptr %19, align 2
  br label %24

24:                                               ; preds = %22, %dissect_spice_link_common_header.exit
  %25 = tail call i32 @tvb_get_letohl(ptr noundef %0, i32 noundef 22)
  %26 = tail call i32 @tvb_get_letohl(ptr noundef %0, i32 noundef 26)
  %27 = load i32, ptr @hf_conn_id, align 4
  %28 = tail call ptr @proto_tree_add_item(ptr noundef %2, i32 noundef %27, ptr noundef %0, i32 noundef 16, i32 noundef 4, i32 noundef -2147483648)
  %29 = load i32, ptr @hf_channel_type, align 4
  %30 = tail call ptr @proto_tree_add_item(ptr noundef %2, i32 noundef %29, ptr noundef %0, i32 noundef 20, i32 noundef 1, i32 noundef 0)
  %31 = load i32, ptr @hf_channel_id, align 4
  %32 = tail call ptr @proto_tree_add_item(ptr noundef %2, i32 noundef %31, ptr noundef %0, i32 noundef 21, i32 noundef 1, i32 noundef 0)
  %33 = load i32, ptr @hf_num_common_caps, align 4
  %34 = tail call ptr @proto_tree_add_item(ptr noundef %2, i32 noundef %33, ptr noundef %0, i32 noundef 22, i32 noundef 4, i32 noundef -2147483648)
  %35 = load i32, ptr @hf_num_channel_caps, align 4
  %36 = tail call ptr @proto_tree_add_item(ptr noundef %2, i32 noundef %35, ptr noundef %0, i32 noundef 26, i32 noundef 4, i32 noundef -2147483648)
  %37 = load i32, ptr @hf_caps_offset, align 4
  %38 = tail call ptr @proto_tree_add_item(ptr noundef %2, i32 noundef %37, ptr noundef %0, i32 noundef 30, i32 noundef 4, i32 noundef -2147483648)
  %.not66 = icmp eq i32 %25, 0
  br i1 %.not66, label %54, label %39

39:                                               ; preds = %24
  %40 = shl i32 %25, 2
  %41 = load i32, ptr @ett_link_caps, align 4
  %42 = tail call ptr (ptr, ptr, i32, i32, i32, ptr, ptr, ...) @proto_tree_add_subtree_format(ptr noundef %2, ptr noundef %0, i32 noundef 34, i32 noundef %40, i32 noundef %41, ptr noundef null, ptr noundef nonnull @.str.749, i32 noundef %40)
  %43 = getelementptr inbounds nuw i8, ptr %3, i64 12
  %44 = getelementptr inbounds nuw i8, ptr %3, i64 32
  br label %.split.us.i

.split.us.i:                                      ; preds = %51, %39
  %.027.us.i = phi i32 [ %.1.us.i, %51 ], [ 34, %39 ]
  %.02326.us.i = phi i32 [ %52, %51 ], [ 0, %39 ]
  %45 = tail call i32 @tvb_get_letohl(ptr noundef %0, i32 noundef %.027.us.i)
  %cond.us.i = icmp eq i32 %.02326.us.i, 0
  br i1 %cond.us.i, label %48, label %46

46:                                               ; preds = %.split.us.i
  %47 = tail call ptr @proto_tree_add_expert(ptr noundef %42, ptr noundef %1, ptr noundef nonnull @ei_spice_common_cap_unknown, ptr noundef %0, i32 noundef %.027.us.i, i32 noundef 4)
  br label %51

48:                                               ; preds = %.split.us.i
  store i32 %45, ptr %43, align 4
  tail call void @proto_tree_add_bitmask_list(ptr noundef %42, ptr noundef %0, i32 noundef %.027.us.i, i32 noundef 4, ptr noundef nonnull @dissect_spice_common_capabilities.caps, i32 noundef -2147483648)
  %49 = and i32 %45, 8
  %.not.us.i = icmp eq i32 %49, 0
  br i1 %.not.us.i, label %51, label %50

50:                                               ; preds = %48
  store i8 1, ptr %44, align 4
  br label %51

51:                                               ; preds = %50, %48, %46
  %.1.us.i = add i32 %.027.us.i, 4
  %52 = add nuw i32 %.02326.us.i, 1
  %exitcond31.not.i = icmp eq i32 %52, %25
  br i1 %exitcond31.not.i, label %dissect_spice_common_capabilities.exit, label %.split.us.i, !llvm.loop !14

dissect_spice_common_capabilities.exit:           ; preds = %51
  %53 = add i32 %40, 34
  br label %54

54:                                               ; preds = %dissect_spice_common_capabilities.exit, %24
  %.0 = phi i32 [ %53, %dissect_spice_common_capabilities.exit ], [ 34, %24 ]
  %.not67 = icmp eq i32 %26, 0
  br i1 %.not67, label %59, label %55

55:                                               ; preds = %54
  %56 = shl i32 %26, 2
  %57 = load i32, ptr @ett_link_caps, align 4
  %58 = tail call ptr (ptr, ptr, i32, i32, i32, ptr, ptr, ...) @proto_tree_add_subtree_format(ptr noundef %2, ptr noundef %0, i32 noundef %.0, i32 noundef %56, i32 noundef %57, ptr noundef null, ptr noundef nonnull @.str.750, i32 noundef %56)
  tail call fastcc void @dissect_spice_link_capabilities(ptr noundef %0, ptr noundef %1, ptr noundef %58, i32 noundef %.0, i32 noundef %26, ptr noundef %3)
  br label %59

59:                                               ; preds = %55, %54
  ret void
}